target datalayout = "e-m:e-p270:32:32-p271:32:32-p272:64:64-i64:64-i128:128-f80:128-n8:16:32:64-S128"
target triple = "x86_64-pc-linux-gnu"

%struct.pg_hmac_ctx = type { ptr, i32, i32, ptr, i32, i32, [128 x i8], [128 x i8] }

; Function Attrs: nounwind uwtable
define dso_local void @pg_hmac_free(ptr noundef %0) #0 {
  %2 = alloca ptr, align 8
  store ptr %0, ptr %2, align 8
  %3 = load ptr, ptr %2, align 8
  %4 = icmp eq ptr %3, null
  br i1 %4, label %5, label %6

5:                                                ; preds = %1
  br label %12

6:                                                ; preds = %1
  %7 = load ptr, ptr %2, align 8
  %8 = getelementptr inbounds nuw %struct.pg_hmac_ctx, ptr %7, i32 0, i32 0
  %9 = load ptr, ptr %8, align 8
  call void @pg_cryptohash_free(ptr noundef %9)
  %10 = load ptr, ptr %2, align 8
  call void @explicit_bzero(ptr noundef %10, i64 noundef 288) #5
  %11 = load ptr, ptr %2, align 8
  call void @pfree(ptr noundef %11)
  br label %12

12:                                               ; preds = %6, %5
  ret void
}