; Function Attrs: nounwind uwtable
define dso_local void @pg_hmac_free(ptr noundef %0) local_unnamed_addr #0 {
  %2 = icmp eq ptr %0, null
  br i1 %2, label %5, label %3

3:                                                ; preds = %1
  %4 = load ptr, ptr %0, align 8
  tail call void @pg_cryptohash_free(ptr noundef %4) #5
  tail call void @explicit_bzero(ptr noundef nonnull %0, i64 noundef 288) #5
  tail call void @pfree(ptr noundef nonnull %0) #5
  br label %5

5:                                                ; preds = %1, %3
  ret void
}